target datalayout = "e-m:e-p270:32:32-p271:32:32-p272:64:64-i64:64-i128:128-f80:128-n8:16:32:64-S128"
target triple = "x86_64-pc-linux-gnu"

%struct.Vec_Ptr_t_ = type { i32, i32, ptr }

; Function Attrs: inlinehint nounwind uwtable
define internal void @Vec_PtrRemove(ptr noundef %0, ptr noundef %1) #4 {
  %3 = alloca ptr, align 8
  %4 = alloca ptr, align 8
  %5 = alloca i32, align 4
  store ptr %0, ptr %3, align 8, !tbaa !31
  store ptr %1, ptr %4, align 8, !tbaa !35
  call void @llvm.lifetime.start.p0(i64 4, ptr %5) #9
  %6 = load ptr, ptr %3, align 8, !tbaa !31
  %7 = getelementptr inbounds nuw %struct.Vec_Ptr_t_, ptr %6, i32 0, i32 1
  %8 = load i32, ptr %7, align 4, !tbaa !32
  %9 = sub nsw i32 %8, 1
  store i32 %9, ptr %5, align 4, !tbaa !10
  br label %10

10:                                               ; preds = %25, %2
  %11 = load i32, ptr %5, align 4, !tbaa !10
  %12 = icmp sge i32 %11, 0
  br i1 %12, label %13, label %28

13:                                               ; preds = %10
  %14 = load ptr, ptr %3, align 8, !tbaa !31
  %15 = getelementptr inbounds nuw %struct.Vec_Ptr_t_, ptr %14, i32 0, i32 2
  %16 = load ptr, ptr %15, align 8, !tbaa !34
  %17 = load i32, ptr %5, align 4, !tbaa !10
  %18 = sext i32 %17 to i64
  %19 = getelementptr inbounds ptr, ptr %16, i64 %18
  %20 = load ptr, ptr %19, align 8, !tbaa !35
  %21 = load ptr, ptr %4, align 8, !tbaa !35
  %22 = icmp eq ptr %20, %21
  br i1 %22, label %23, label %24

23:                                               ; preds = %13
  br label %28

24:                                               ; preds = %13
  br label %25

25:                                               ; preds = %24
  %26 = load i32, ptr %5, align 4, !tbaa !10
  %27 = add nsw i32 %26, -1
  store i32 %27, ptr %5, align 4, !tbaa !10
  br label %10, !llvm.loop !39

28:                                               ; preds = %23, %10
  %29 = load i32, ptr %5, align 4, !tbaa !10
  %30 = add nsw i32 %29, 1
  store i32 %30, ptr %5, align 4, !tbaa !10
  br label %31

31:                                               ; preds = %52, %28
  %32 = load i32, ptr %5, align 4, !tbaa !10
  %33 = load ptr, ptr %3, align 8, !tbaa !31
  %34 = getelementptr inbounds nuw %struct.Vec_Ptr_t_, ptr %33, i32 0, i32 1
  %35 = load i32, ptr %34, align 4, !tbaa !32
  %36 = icmp slt i32 %32, %35
  br i1 %36, label %37, label %55

37:                                               ; preds = %31
  %38 = load ptr, ptr %3, align 8, !tbaa !31
  %39 = getelementptr inbounds nuw %struct.Vec_Ptr_t_, ptr %38, i32 0, i32 2
  %40 = load ptr, ptr %39, align 8, !tbaa !34
  %41 = load i32, ptr %5, align 4, !tbaa !10
  %42 = sext i32 %41 to i64
  %43 = getelementptr inbounds ptr, ptr %40, i64 %42
  %44 = load ptr, ptr %43, align 8, !tbaa !35
  %45 = load ptr, ptr %3, align 8, !tbaa !31
  %46 = getelementptr inbounds nuw %struct.Vec_Ptr_t_, ptr %45, i32 0, i32 2
  %47 = load ptr, ptr %46, align 8, !tbaa !34
  %48 = load i32, ptr %5, align 4, !tbaa !10
  %49 = sub nsw i32 %48, 1
  %50 = sext i32 %49 to i64
  %51 = getelementptr inbounds ptr, ptr %47, i64 %50
  store ptr %44, ptr %51, align 8, !tbaa !35
  br label %52

52:                                               ; preds = %37
  %53 = load i32, ptr %5, align 4, !tbaa !10
  %54 = add nsw i32 %53, 1
  store i32 %54, ptr %5, align 4, !tbaa !10
  br label %31, !llvm.loop !40

55:                                               ; preds = %31
  %56 = load ptr, ptr %3, align 8, !tbaa !31
  %57 = getelementptr inbounds nuw %struct.Vec_Ptr_t_, ptr %56, i32 0, i32 1
  %58 = load i32, ptr %57, align 4, !tbaa !32
  %59 = add nsw i32 %58, -1
  store i32 %59, ptr %57, align 4, !tbaa !32
  call void @llvm.lifetime.end.p0(i64 4, ptr %5) #9
  ret void
}