; Function Attrs: inlinehint nofree norecurse nosync nounwind memory(readwrite, inaccessiblemem: none) uwtable
define internal fastcc void @Vec_PtrRemove(ptr noundef captures(none) %0, ptr noundef readnone %1) unnamed_addr #6 {
  %3 = getelementptr inbounds nuw i8, ptr %0, i64 4
  %4 = load i32, ptr %3, align 4, !tbaa !25
  %5 = getelementptr inbounds nuw i8, ptr %0, i64 8
  %6 = zext i32 %4 to i64
  %smin = tail call i32 @llvm.smin.i32(i32 %4, i32 0)
  br label %7

7:                                                ; preds = %10, %2
  %indvars.iv = phi i64 [ %11, %10 ], [ %6, %2 ]
  %8 = trunc nuw i64 %indvars.iv to i32
  %9 = icmp sgt i32 %8, 0
  br i1 %9, label %10, label %16

10:                                               ; preds = %7
  %11 = add nsw i64 %indvars.iv, -1
  %12 = load ptr, ptr %5, align 8, !tbaa !27
  %13 = getelementptr inbounds nuw ptr, ptr %12, i64 %11
  %14 = load ptr, ptr %13, align 8, !tbaa !28
  %15 = icmp eq ptr %14, %1
  br i1 %15, label %16, label %7, !llvm.loop !33

16:                                               ; preds = %10, %7
  %.0.in.lcssa = phi i32 [ %8, %10 ], [ %smin, %7 ]
  %17 = icmp slt i32 %.0.in.lcssa, %4
  br i1 %17, label %.lr.ph, label %._crit_edge

.lr.ph:                                           ; preds = %16
  %18 = sext i32 %.0.in.lcssa to i64
  %wide.trip.count = sext i32 %4 to i64
  br label %19

19:                                               ; preds = %.lr.ph, %19
  %indvars.iv18 = phi i64 [ %18, %.lr.ph ], [ %indvars.iv.next19, %19 ]
  %20 = load ptr, ptr %5, align 8, !tbaa !27
  %21 = getelementptr inbounds ptr, ptr %20, i64 %indvars.iv18
  %22 = load ptr, ptr %21, align 8, !tbaa !28
  %23 = getelementptr i8, ptr %21, i64 -8
  store ptr %22, ptr %23, align 8, !tbaa !28
  %indvars.iv.next19 = add nsw i64 %indvars.iv18, 1
  %exitcond.not = icmp eq i64 %indvars.iv.next19, %wide.trip.count
  br i1 %exitcond.not, label %._crit_edge, label %19, !llvm.loop !34

._crit_edge:                                      ; preds = %19, %16
  %24 = add nsw i32 %4, -1
  store i32 %24, ptr %3, align 4, !tbaa !25
  ret void
}